; Function Attrs: mustprogress uwtable
define hidden noundef ptr @_ZN7datalog30finite_product_relation_plugin22mk_filter_identical_fnERKNS_13relation_baseEjPKj(ptr noundef nonnull readnone align 8 dereferenceable(112) %this, ptr noundef nonnull align 8 dereferenceable(28) %rb, i32 noundef %col_cnt, ptr noundef %identical_cols) unnamed_addr #3 align 2 {
entry:
  %m_plugin.i = getelementptr inbounds i8, ptr %rb, i64 8
  %0 = load ptr, ptr %m_plugin.i, align 8
  %cmp.not = icmp eq ptr %0, %this
  br i1 %cmp.not, label %if.end, label %return

if.end:                                           ; preds = %entry
  %call2 = tail call noalias noundef ptr @_ZN6memory8allocateEm(i64 noundef 48)
  tail call void @_ZN7datalog30finite_product_relation_plugin19filter_identical_fnC2ERKNS_23finite_product_relationEjPKj(ptr noundef nonnull align 8 dereferenceable(48) %call2, ptr noundef nonnull align 8 dereferenceable(160) %rb, i32 noundef %col_cnt, ptr noundef %identical_cols)
  br label %return

return:                                           ; preds = %entry, %if.end
  %retval.0 = phi ptr [ %call2, %if.end ], [ null, %entry ]
  ret ptr %retval.0
}